Archive member included because of file (symbol)

c:/coocox/coide/bleedingedge/bin/../lib/gcc/arm-none-eabi/4.7.4/../../../../arm-none-eabi/lib/armv7-m\libg.a(lib_a-strlen.o)
                              ..\obj\myusart.o (strlen)

Allocating common symbols
Common symbol       size              file

TimingDelay         0x4               ..\obj\Delay.o
length_tran         0x4               ..\obj\myusart.o
usart_rec_buf_str   0x8               ..\obj\myusart.o
transmit            0x4               ..\obj\myusart.o
rec_buf             0xa               ..\obj\myusart.o
wsk_buf_rec         0x4               ..\obj\myusart.o
RCC_Clocks          0x14              ..\obj\system.o

Discarded input sections

 .text          0x00000000        0x0 ..\obj\stm32f10x_tim.o
 .data          0x00000000        0x0 ..\obj\stm32f10x_tim.o
 .bss           0x00000000        0x0 ..\obj\stm32f10x_tim.o
 .text.TIM_DeInit
                0x00000000      0x2b0 ..\obj\stm32f10x_tim.o
 .text.TIM_TimeBaseInit
                0x00000000      0x11c ..\obj\stm32f10x_tim.o
 .text.TIM_OC1Init
                0x00000000      0x128 ..\obj\stm32f10x_tim.o
 .text.TIM_OC2Init
                0x00000000      0x128 ..\obj\stm32f10x_tim.o
 .text.TIM_OC3Init
                0x00000000      0x120 ..\obj\stm32f10x_tim.o
 .text.TIM_OC4Init
                0x00000000       0xe0 ..\obj\stm32f10x_tim.o
 .text.TIM_ICInit
                0x00000000       0xa8 ..\obj\stm32f10x_tim.o
 .text.TIM_PWMIConfig
                0x00000000       0xc4 ..\obj\stm32f10x_tim.o
 .text.TIM_BDTRConfig
                0x00000000       0x50 ..\obj\stm32f10x_tim.o
 .text.TIM_TimeBaseStructInit
                0x00000000       0x3c ..\obj\stm32f10x_tim.o
 .text.TIM_OCStructInit
                0x00000000       0x54 ..\obj\stm32f10x_tim.o
 .text.TIM_ICStructInit
                0x00000000       0x3c ..\obj\stm32f10x_tim.o
 .text.TIM_BDTRStructInit
                0x00000000       0x4c ..\obj\stm32f10x_tim.o
 .text.TIM_Cmd  0x00000000       0x40 ..\obj\stm32f10x_tim.o
 .text.TIM_CtrlPWMOutputs
                0x00000000       0x50 ..\obj\stm32f10x_tim.o
 .text.TIM_ITConfig
                0x00000000       0x48 ..\obj\stm32f10x_tim.o
 .text.TIM_GenerateEvent
                0x00000000       0x1c ..\obj\stm32f10x_tim.o
 .text.TIM_DMAConfig
                0x00000000       0x28 ..\obj\stm32f10x_tim.o
 .text.TIM_DMACmd
                0x00000000       0x48 ..\obj\stm32f10x_tim.o
 .text.TIM_InternalClockConfig
                0x00000000       0x24 ..\obj\stm32f10x_tim.o
 .text.TIM_ITRxExternalClockConfig
                0x00000000       0x30 ..\obj\stm32f10x_tim.o
 .text.TIM_TIxExternalClockConfig
                0x00000000       0x58 ..\obj\stm32f10x_tim.o
 .text.TIM_ETRClockMode1Config
                0x00000000       0x54 ..\obj\stm32f10x_tim.o
 .text.TIM_ETRClockMode2Config
                0x00000000       0x34 ..\obj\stm32f10x_tim.o
 .text.TIM_ETRConfig
                0x00000000       0x4c ..\obj\stm32f10x_tim.o
 .text.TIM_PrescalerConfig
                0x00000000       0x28 ..\obj\stm32f10x_tim.o
 .text.TIM_CounterModeConfig
                0x00000000       0x38 ..\obj\stm32f10x_tim.o
 .text.TIM_SelectInputTrigger
                0x00000000       0x38 ..\obj\stm32f10x_tim.o
 .text.TIM_EncoderInterfaceConfig
                0x00000000       0x94 ..\obj\stm32f10x_tim.o
 .text.TIM_ForcedOC1Config
                0x00000000       0x38 ..\obj\stm32f10x_tim.o
 .text.TIM_ForcedOC2Config
                0x00000000       0x40 ..\obj\stm32f10x_tim.o
 .text.TIM_ForcedOC3Config
                0x00000000       0x38 ..\obj\stm32f10x_tim.o
 .text.TIM_ForcedOC4Config
                0x00000000       0x40 ..\obj\stm32f10x_tim.o
 .text.TIM_ARRPreloadConfig
                0x00000000       0x40 ..\obj\stm32f10x_tim.o
 .text.TIM_SelectCOM
                0x00000000       0x40 ..\obj\stm32f10x_tim.o
 .text.TIM_SelectCCDMA
                0x00000000       0x40 ..\obj\stm32f10x_tim.o
 .text.TIM_CCPreloadControl
                0x00000000       0x40 ..\obj\stm32f10x_tim.o
 .text.TIM_OC1PreloadConfig
                0x00000000       0x38 ..\obj\stm32f10x_tim.o
 .text.TIM_OC2PreloadConfig
                0x00000000       0x40 ..\obj\stm32f10x_tim.o
 .text.TIM_OC3PreloadConfig
                0x00000000       0x38 ..\obj\stm32f10x_tim.o
 .text.TIM_OC4PreloadConfig
                0x00000000       0x40 ..\obj\stm32f10x_tim.o
 .text.TIM_OC1FastConfig
                0x00000000       0x38 ..\obj\stm32f10x_tim.o
 .text.TIM_OC2FastConfig
                0x00000000       0x40 ..\obj\stm32f10x_tim.o
 .text.TIM_OC3FastConfig
                0x00000000       0x38 ..\obj\stm32f10x_tim.o
 .text.TIM_OC4FastConfig
                0x00000000       0x40 ..\obj\stm32f10x_tim.o
 .text.TIM_ClearOC1Ref
                0x00000000       0x38 ..\obj\stm32f10x_tim.o
 .text.TIM_ClearOC2Ref
                0x00000000       0x44 ..\obj\stm32f10x_tim.o
 .text.TIM_ClearOC3Ref
                0x00000000       0x38 ..\obj\stm32f10x_tim.o
 .text.TIM_ClearOC4Ref
                0x00000000       0x44 ..\obj\stm32f10x_tim.o
 .text.TIM_OC1PolarityConfig
                0x00000000       0x38 ..\obj\stm32f10x_tim.o
 .text.TIM_OC1NPolarityConfig
                0x00000000       0x38 ..\obj\stm32f10x_tim.o
 .text.TIM_OC2PolarityConfig
                0x00000000       0x40 ..\obj\stm32f10x_tim.o
 .text.TIM_OC2NPolarityConfig
                0x00000000       0x40 ..\obj\stm32f10x_tim.o
 .text.TIM_OC3PolarityConfig
                0x00000000       0x40 ..\obj\stm32f10x_tim.o
 .text.TIM_OC3NPolarityConfig
                0x00000000       0x40 ..\obj\stm32f10x_tim.o
 .text.TIM_OC4PolarityConfig
                0x00000000       0x40 ..\obj\stm32f10x_tim.o
 .text.TIM_CCxCmd
                0x00000000       0x5c ..\obj\stm32f10x_tim.o
 .text.TIM_CCxNCmd
                0x00000000       0x5c ..\obj\stm32f10x_tim.o
 .text.TIM_SelectOCxM
                0x00000000       0xbc ..\obj\stm32f10x_tim.o
 .text.TIM_UpdateDisableConfig
                0x00000000       0x40 ..\obj\stm32f10x_tim.o
 .text.TIM_UpdateRequestConfig
                0x00000000       0x40 ..\obj\stm32f10x_tim.o
 .text.TIM_SelectHallSensor
                0x00000000       0x40 ..\obj\stm32f10x_tim.o
 .text.TIM_SelectOnePulseMode
                0x00000000       0x38 ..\obj\stm32f10x_tim.o
 .text.TIM_SelectOutputTrigger
                0x00000000       0x38 ..\obj\stm32f10x_tim.o
 .text.TIM_SelectSlaveMode
                0x00000000       0x38 ..\obj\stm32f10x_tim.o
 .text.TIM_SelectMasterSlaveMode
                0x00000000       0x38 ..\obj\stm32f10x_tim.o
 .text.TIM_SetCounter
                0x00000000       0x1c ..\obj\stm32f10x_tim.o
 .text.TIM_SetAutoreload
                0x00000000       0x1c ..\obj\stm32f10x_tim.o
 .text.TIM_SetCompare1
                0x00000000       0x1c ..\obj\stm32f10x_tim.o
 .text.TIM_SetCompare2
                0x00000000       0x1c ..\obj\stm32f10x_tim.o
 .text.TIM_SetCompare3
                0x00000000       0x1c ..\obj\stm32f10x_tim.o
 .text.TIM_SetCompare4
                0x00000000       0x20 ..\obj\stm32f10x_tim.o
 .text.TIM_SetIC1Prescaler
                0x00000000       0x38 ..\obj\stm32f10x_tim.o
 .text.TIM_SetIC2Prescaler
                0x00000000       0x3c ..\obj\stm32f10x_tim.o
 .text.TIM_SetIC3Prescaler
                0x00000000       0x38 ..\obj\stm32f10x_tim.o
 .text.TIM_SetIC4Prescaler
                0x00000000       0x3c ..\obj\stm32f10x_tim.o
 .text.TIM_SetClockDivision
                0x00000000       0x38 ..\obj\stm32f10x_tim.o
 .text.TIM_GetCapture1
                0x00000000       0x1c ..\obj\stm32f10x_tim.o
 .text.TIM_GetCapture2
                0x00000000       0x1c ..\obj\stm32f10x_tim.o
 .text.TIM_GetCapture3
                0x00000000       0x1c ..\obj\stm32f10x_tim.o
 .text.TIM_GetCapture4
                0x00000000       0x1c ..\obj\stm32f10x_tim.o
 .text.TIM_GetCounter
                0x00000000       0x1c ..\obj\stm32f10x_tim.o
 .text.TIM_GetPrescaler
                0x00000000       0x1c ..\obj\stm32f10x_tim.o
 .text.TIM_GetFlagStatus
                0x00000000       0x40 ..\obj\stm32f10x_tim.o
 .text.TIM_ClearFlag
                0x00000000       0x24 ..\obj\stm32f10x_tim.o
 .text.TI1_Config
                0x00000000       0xe4 ..\obj\stm32f10x_tim.o
 .text.TI2_Config
                0x00000000      0x104 ..\obj\stm32f10x_tim.o
 .text.TI3_Config
                0x00000000       0xf4 ..\obj\stm32f10x_tim.o
 .text.TI4_Config
                0x00000000      0x10c ..\obj\stm32f10x_tim.o
 .text          0x00000000        0x0 ..\obj\startup_stm32f10x_md_vl.o
 .data          0x00000000        0x0 ..\obj\startup_stm32f10x_md_vl.o
 .bss           0x00000000        0x0 ..\obj\startup_stm32f10x_md_vl.o
 .text          0x00000000        0x0 ..\obj\system_stm32f10x.o
 .data          0x00000000       0x14 ..\obj\system_stm32f10x.o
 .bss           0x00000000        0x0 ..\obj\system_stm32f10x.o
 .text.SystemCoreClockUpdate
                0x00000000      0x13c ..\obj\system_stm32f10x.o
 .text          0x00000000        0x0 ..\obj\stm32f10x_gpio.o
 .data          0x00000000        0x0 ..\obj\stm32f10x_gpio.o
 .bss           0x00000000        0x0 ..\obj\stm32f10x_gpio.o
 .text.GPIO_DeInit
                0x00000000      0x128 ..\obj\stm32f10x_gpio.o
 .text.GPIO_AFIODeInit
                0x00000000       0x20 ..\obj\stm32f10x_gpio.o
 .text.GPIO_StructInit
                0x00000000       0x2c ..\obj\stm32f10x_gpio.o
 .text.GPIO_ReadInputDataBit
                0x00000000       0x3c ..\obj\stm32f10x_gpio.o
 .text.GPIO_ReadInputData
                0x00000000       0x1c ..\obj\stm32f10x_gpio.o
 .text.GPIO_ReadOutputDataBit
                0x00000000       0x3c ..\obj\stm32f10x_gpio.o
 .text.GPIO_ReadOutputData
                0x00000000       0x1c ..\obj\stm32f10x_gpio.o
 .text.GPIO_WriteBit
                0x00000000       0x30 ..\obj\stm32f10x_gpio.o
 .text.GPIO_Write
                0x00000000       0x1c ..\obj\stm32f10x_gpio.o
 .text.GPIO_PinLockConfig
                0x00000000       0x44 ..\obj\stm32f10x_gpio.o
 .text.GPIO_EventOutputConfig
                0x00000000       0x54 ..\obj\stm32f10x_gpio.o
 .text.GPIO_EventOutputCmd
                0x00000000       0x20 ..\obj\stm32f10x_gpio.o
 .text.GPIO_PinRemapConfig
                0x00000000      0x120 ..\obj\stm32f10x_gpio.o
 .text.GPIO_EXTILineConfig
                0x00000000       0xb0 ..\obj\stm32f10x_gpio.o
 .text.GPIO_ETH_MediaInterfaceConfig
                0x00000000       0x20 ..\obj\stm32f10x_gpio.o
 .text          0x00000000        0x0 ..\obj\main.o
 .data          0x00000000        0x0 ..\obj\main.o
 .text          0x00000000        0x0 ..\obj\system.o
 .data          0x00000000        0x0 ..\obj\system.o
 .bss           0x00000000        0x0 ..\obj\system.o
 .text          0x00000000        0x0 ..\obj\Delay.o
 .data          0x00000000        0x0 ..\obj\Delay.o
 .text.Delay_us
                0x00000000       0x50 ..\obj\Delay.o
 .text.Millis   0x00000000       0x18 ..\obj\Delay.o
 .text.Delay_usTimerInit
                0x00000000       0x78 ..\obj\Delay.o
 .text          0x00000000        0x0 ..\obj\stm32f10x_rcc.o
 .bss           0x00000000        0x0 ..\obj\stm32f10x_rcc.o
 .text.RCC_DeInit
                0x00000000       0xa8 ..\obj\stm32f10x_rcc.o
 .text.RCC_AdjustHSICalibrationValue
                0x00000000       0x48 ..\obj\stm32f10x_rcc.o
 .text.RCC_HSICmd
                0x00000000       0x20 ..\obj\stm32f10x_rcc.o
 .text.RCC_PREDIV1Config
                0x00000000       0x4c ..\obj\stm32f10x_rcc.o
 .text.RCC_ITConfig
                0x00000000       0x60 ..\obj\stm32f10x_rcc.o
 .text.RCC_USBCLKConfig
                0x00000000       0x20 ..\obj\stm32f10x_rcc.o
 .text.RCC_ADCCLKConfig
                0x00000000       0x40 ..\obj\stm32f10x_rcc.o
 .text.RCC_LSEConfig
                0x00000000       0x60 ..\obj\stm32f10x_rcc.o
 .text.RCC_LSICmd
                0x00000000       0x20 ..\obj\stm32f10x_rcc.o
 .text.RCC_RTCCLKConfig
                0x00000000       0x2c ..\obj\stm32f10x_rcc.o
 .text.RCC_RTCCLKCmd
                0x00000000       0x20 ..\obj\stm32f10x_rcc.o
 .text.RCC_AHBPeriphClockCmd
                0x00000000       0x54 ..\obj\stm32f10x_rcc.o
 .text.RCC_APB1PeriphClockCmd
                0x00000000       0x54 ..\obj\stm32f10x_rcc.o
 .text.RCC_APB2PeriphResetCmd
                0x00000000       0x54 ..\obj\stm32f10x_rcc.o
 .text.RCC_APB1PeriphResetCmd
                0x00000000       0x54 ..\obj\stm32f10x_rcc.o
 .text.RCC_BackupResetCmd
                0x00000000       0x20 ..\obj\stm32f10x_rcc.o
 .text.RCC_ClockSecuritySystemCmd
                0x00000000       0x20 ..\obj\stm32f10x_rcc.o
 .text.RCC_MCOConfig
                0x00000000       0x20 ..\obj\stm32f10x_rcc.o
 .text.RCC_ClearFlag
                0x00000000       0x24 ..\obj\stm32f10x_rcc.o
 .text.RCC_GetITStatus
                0x00000000       0x40 ..\obj\stm32f10x_rcc.o
 .text.RCC_ClearITPendingBit
                0x00000000       0x20 ..\obj\stm32f10x_rcc.o
 .text          0x00000000        0x0 ..\obj\myusart.o
 .text          0x00000000        0x0 ..\obj\stm32f10x_exti.o
 .data          0x00000000        0x0 ..\obj\stm32f10x_exti.o
 .bss           0x00000000        0x0 ..\obj\stm32f10x_exti.o
 .text.EXTI_DeInit
                0x00000000       0x54 ..\obj\stm32f10x_exti.o
 .text.EXTI_Init
                0x00000000      0x138 ..\obj\stm32f10x_exti.o
 .text.EXTI_StructInit
                0x00000000       0x34 ..\obj\stm32f10x_exti.o
 .text.EXTI_GenerateSWInterrupt
                0x00000000       0x2c ..\obj\stm32f10x_exti.o
 .text.EXTI_GetFlagStatus
                0x00000000       0x3c ..\obj\stm32f10x_exti.o
 .text.EXTI_ClearFlag
                0x00000000       0x20 ..\obj\stm32f10x_exti.o
 .text.EXTI_GetITStatus
                0x00000000       0x58 ..\obj\stm32f10x_exti.o
 .text          0x00000000        0x0 ..\obj\stm32f10x_usart.o
 .data          0x00000000        0x0 ..\obj\stm32f10x_usart.o
 .bss           0x00000000        0x0 ..\obj\stm32f10x_usart.o
 .text.USART_DeInit
                0x00000000       0xd8 ..\obj\stm32f10x_usart.o
 .text.USART_StructInit
                0x00000000       0x44 ..\obj\stm32f10x_usart.o
 .text.USART_ClockInit
                0x00000000       0x58 ..\obj\stm32f10x_usart.o
 .text.USART_ClockStructInit
                0x00000000       0x34 ..\obj\stm32f10x_usart.o
 .text.USART_DMACmd
                0x00000000       0x48 ..\obj\stm32f10x_usart.o
 .text.USART_SetAddress
                0x00000000       0x38 ..\obj\stm32f10x_usart.o
 .text.USART_WakeUpConfig
                0x00000000       0x38 ..\obj\stm32f10x_usart.o
 .text.USART_ReceiverWakeUpCmd
                0x00000000       0x40 ..\obj\stm32f10x_usart.o
 .text.USART_LINBreakDetectLengthConfig
                0x00000000       0x38 ..\obj\stm32f10x_usart.o
 .text.USART_LINCmd
                0x00000000       0x40 ..\obj\stm32f10x_usart.o
 .text.USART_SendBreak
                0x00000000       0x24 ..\obj\stm32f10x_usart.o
 .text.USART_SetGuardTime
                0x00000000       0x3c ..\obj\stm32f10x_usart.o
 .text.USART_SetPrescaler
                0x00000000       0x38 ..\obj\stm32f10x_usart.o
 .text.USART_SmartCardCmd
                0x00000000       0x40 ..\obj\stm32f10x_usart.o
 .text.USART_SmartCardNACKCmd
                0x00000000       0x40 ..\obj\stm32f10x_usart.o
 .text.USART_HalfDuplexCmd
                0x00000000       0x40 ..\obj\stm32f10x_usart.o
 .text.USART_OverSampling8Cmd
                0x00000000       0x48 ..\obj\stm32f10x_usart.o
 .text.USART_OneBitMethodCmd
                0x00000000       0x40 ..\obj\stm32f10x_usart.o
 .text.USART_IrDAConfig
                0x00000000       0x38 ..\obj\stm32f10x_usart.o
 .text.USART_IrDACmd
                0x00000000       0x40 ..\obj\stm32f10x_usart.o
 .text.USART_GetFlagStatus
                0x00000000       0x40 ..\obj\stm32f10x_usart.o
 .text.USART_ClearFlag
                0x00000000       0x24 ..\obj\stm32f10x_usart.o
 .text.USART_ClearITPendingBit
                0x00000000       0x44 ..\obj\stm32f10x_usart.o
 .text          0x00000000        0x0 ..\obj\syscalls.o
 .data          0x00000000        0x0 ..\obj\syscalls.o
 .bss           0x00000000        0x4 ..\obj\syscalls.o
 .text._sbrk    0x00000000       0x5c ..\obj\syscalls.o
 .text.link     0x00000000       0x1c ..\obj\syscalls.o
 .text._close   0x00000000       0x18 ..\obj\syscalls.o
 .text._fstat   0x00000000       0x24 ..\obj\syscalls.o
 .text._isatty  0x00000000       0x18 ..\obj\syscalls.o
 .text._lseek   0x00000000       0x1c ..\obj\syscalls.o
 .text._read    0x00000000       0x1c ..\obj\syscalls.o
 .text._write   0x00000000       0x1c ..\obj\syscalls.o
 .text.abort    0x00000000        0x8 ..\obj\syscalls.o
 .debug_info    0x00000000      0x443 ..\obj\syscalls.o
 .debug_abbrev  0x00000000       0xe4 ..\obj\syscalls.o
 .debug_loc     0x00000000      0x1ec ..\obj\syscalls.o
 .debug_aranges
                0x00000000       0x60 ..\obj\syscalls.o
 .debug_ranges  0x00000000       0x50 ..\obj\syscalls.o
 .debug_line    0x00000000      0x182 ..\obj\syscalls.o
 .debug_str     0x00000000      0x264 ..\obj\syscalls.o
 .comment       0x00000000       0x6b ..\obj\syscalls.o
 .ARM.attributes
                0x00000000       0x33 ..\obj\syscalls.o
 .debug_frame   0x00000000      0x108 ..\obj\syscalls.o
 .text          0x00000000        0x0 ..\obj\stm32f10x_flash.o
 .data          0x00000000        0x0 ..\obj\stm32f10x_flash.o
 .bss           0x00000000        0x0 ..\obj\stm32f10x_flash.o
 .text.FLASH_HalfCycleAccessCmd
                0x00000000       0x44 ..\obj\stm32f10x_flash.o
 .text.FLASH_Unlock
                0x00000000       0x30 ..\obj\stm32f10x_flash.o
 .text.FLASH_UnlockBank1
                0x00000000       0x30 ..\obj\stm32f10x_flash.o
 .text.FLASH_Lock
                0x00000000       0x24 ..\obj\stm32f10x_flash.o
 .text.FLASH_LockBank1
                0x00000000       0x24 ..\obj\stm32f10x_flash.o
 .text.FLASH_ErasePage
                0x00000000       0x90 ..\obj\stm32f10x_flash.o
 .text.FLASH_EraseAllPages
                0x00000000       0x80 ..\obj\stm32f10x_flash.o
 .text.FLASH_EraseAllBank1Pages
                0x00000000       0x80 ..\obj\stm32f10x_flash.o
 .text.FLASH_EraseOptionBytes
                0x00000000      0x134 ..\obj\stm32f10x_flash.o
 .text.FLASH_ProgramWord
                0x00000000       0xbc ..\obj\stm32f10x_flash.o
 .text.FLASH_ProgramHalfWord
                0x00000000       0x74 ..\obj\stm32f10x_flash.o
 .text.FLASH_ProgramOptionByteData
                0x00000000       0xa0 ..\obj\stm32f10x_flash.o
 .text.FLASH_EnableWriteProtection
                0x00000000      0x15c ..\obj\stm32f10x_flash.o
 .text.FLASH_ReadOutProtection
                0x00000000      0x13c ..\obj\stm32f10x_flash.o
 .text.FLASH_UserOptionByteConfig
                0x00000000       0xbc ..\obj\stm32f10x_flash.o
 .text.FLASH_GetUserOptionByte
                0x00000000       0x1c ..\obj\stm32f10x_flash.o
 .text.FLASH_GetWriteProtectionOptionByte
                0x00000000       0x18 ..\obj\stm32f10x_flash.o
 .text.FLASH_GetReadOutProtectionStatus
                0x00000000       0x3c ..\obj\stm32f10x_flash.o
 .text.FLASH_GetPrefetchBufferStatus
                0x00000000       0x3c ..\obj\stm32f10x_flash.o
 .text.FLASH_ITConfig
                0x00000000       0x54 ..\obj\stm32f10x_flash.o
 .text.FLASH_GetFlagStatus
                0x00000000       0x64 ..\obj\stm32f10x_flash.o
 .text.FLASH_ClearFlag
                0x00000000       0x20 ..\obj\stm32f10x_flash.o
 .text.FLASH_GetStatus
                0x00000000       0x70 ..\obj\stm32f10x_flash.o
 .text.FLASH_GetBank1Status
                0x00000000       0x70 ..\obj\stm32f10x_flash.o
 .text.FLASH_WaitForLastOperation
                0x00000000       0x4c ..\obj\stm32f10x_flash.o
 .text.FLASH_WaitForLastBank1Operation
                0x00000000       0x4c ..\obj\stm32f10x_flash.o
 .text          0x00000000        0x0 ..\obj\stm32f10x_it.o
 .data          0x00000000        0x0 ..\obj\stm32f10x_it.o
 .bss           0x00000000        0x0 ..\obj\stm32f10x_it.o
 .text.DebugMonitor
                0x00000000        0xc ..\obj\stm32f10x_it.o
 .text.SVCHandler
                0x00000000        0xc ..\obj\stm32f10x_it.o
 .text.PendSVC  0x00000000        0xc ..\obj\stm32f10x_it.o
 .text.DMAChannel1_IRQHandler
                0x00000000        0xc ..\obj\stm32f10x_it.o
 .text.DMAChannel2_IRQHandler
                0x00000000        0xc ..\obj\stm32f10x_it.o
 .text.DMAChannel3_IRQHandler
                0x00000000        0xc ..\obj\stm32f10x_it.o
 .text.DMAChannel4_IRQHandler
                0x00000000        0xc ..\obj\stm32f10x_it.o
 .text.DMAChannel5_IRQHandler
                0x00000000        0xc ..\obj\stm32f10x_it.o
 .text.DMAChannel6_IRQHandler
                0x00000000        0xc ..\obj\stm32f10x_it.o
 .text.DMAChannel7_IRQHandler
                0x00000000        0xc ..\obj\stm32f10x_it.o
 .text.ADC_IRQHandler
                0x00000000        0xc ..\obj\stm32f10x_it.o
 .text.USB_HP_CAN1_TX_IRQHandler
                0x00000000        0xc ..\obj\stm32f10x_it.o
 .text.USB_LP_CAN1_RX0_IRQHandler
                0x00000000        0xc ..\obj\stm32f10x_it.o
 .text.CAN_RX1_IRQHandler
                0x00000000        0xc ..\obj\stm32f10x_it.o
 .text.CAN_SCE_IRQHandler
                0x00000000        0xc ..\obj\stm32f10x_it.o
 .text.TIM1_BRK_IRQHandler
                0x00000000        0xc ..\obj\stm32f10x_it.o
 .text.TIM1_TRG_COM_IRQHandler
                0x00000000        0xc ..\obj\stm32f10x_it.o
 .text.UART4_IRQHandler
                0x00000000        0xc ..\obj\stm32f10x_it.o
 .text.USBWakeUp_IRQHandler
                0x00000000        0xc ..\obj\stm32f10x_it.o
 .text          0x00000000        0x0 ..\obj\itoa.o
 .data          0x00000000        0x0 ..\obj\itoa.o
 .bss           0x00000000        0x0 ..\obj\itoa.o
 .text.itoa     0x00000000       0xb4 ..\obj\itoa.o
 .text.__reverse
                0x00000000       0x44 ..\obj\itoa.o
 .rodata        0x00000000       0x14 ..\obj\itoa.o
 .debug_info    0x00000000      0x172 ..\obj\itoa.o
 .debug_abbrev  0x00000000       0xc7 ..\obj\itoa.o
 .debug_loc     0x00000000       0x70 ..\obj\itoa.o
 .debug_aranges
                0x00000000       0x28 ..\obj\itoa.o
 .debug_ranges  0x00000000       0x18 ..\obj\itoa.o
 .debug_line    0x00000000      0x10f ..\obj\itoa.o
 .debug_str     0x00000000      0x130 ..\obj\itoa.o
 .comment       0x00000000       0x6b ..\obj\itoa.o
 .ARM.attributes
                0x00000000       0x33 ..\obj\itoa.o
 .debug_frame   0x00000000       0x4c ..\obj\itoa.o
 .text          0x00000000        0x0 ..\obj\misc.o
 .data          0x00000000        0x0 ..\obj\misc.o
 .bss           0x00000000        0x0 ..\obj\misc.o
 .text.NVIC_SetVectorTable
                0x00000000       0x2c ..\obj\misc.o
 .text.NVIC_SystemLPConfig
                0x00000000       0x54 ..\obj\misc.o
 .text.SysTick_CLKSourceConfig
                0x00000000       0x4c ..\obj\misc.o
 .text          0x00000000        0x0 c:/coocox/coide/bleedingedge/bin/../lib/gcc/arm-none-eabi/4.7.4/../../../../arm-none-eabi/lib/armv7-m\libg.a(lib_a-strlen.o)
 .data          0x00000000        0x0 c:/coocox/coide/bleedingedge/bin/../lib/gcc/arm-none-eabi/4.7.4/../../../../arm-none-eabi/lib/armv7-m\libg.a(lib_a-strlen.o)
 .bss           0x00000000        0x0 c:/coocox/coide/bleedingedge/bin/../lib/gcc/arm-none-eabi/4.7.4/../../../../arm-none-eabi/lib/armv7-m\libg.a(lib_a-strlen.o)

Memory Configuration

Name             Origin             Length             Attributes
rom              0x08000000         0x00020000         xr
ram              0x20000000         0x00002000         xrw
*default*        0x00000000         0xffffffff

Linker script and memory map

                0x20002000                _eram = 0x20002000

.text           0x08000000     0x1920
 *(.isr_vector)
 .isr_vector    0x08000000      0x124 ..\obj\startup_stm32f10x_md_vl.o
                0x08000000                g_pfnVectors
 *(.text*)
 .text.TIM_GetITStatus
                0x08000124       0x60 ..\obj\stm32f10x_tim.o
                0x08000124                TIM_GetITStatus
 .text.TIM_ClearITPendingBit
                0x08000184       0x24 ..\obj\stm32f10x_tim.o
                0x08000184                TIM_ClearITPendingBit
 .text.Default_Reset_Handler
                0x080001a8       0x6c ..\obj\startup_stm32f10x_md_vl.o
                0x080001a8                Default_Reset_Handler
                0x080001a8                Reset_Handler
 .text.Default_Handler
                0x08000214        0x8 ..\obj\startup_stm32f10x_md_vl.o
                0x08000214                EXTI2_IRQHandler
                0x08000214                DebugMon_Handler
                0x08000214                PendSV_Handler
                0x08000214                EXTI3_IRQHandler
                0x08000214                EXTI0_IRQHandler
                0x08000214                TIM1_UP_TIM16_IRQHandler
                0x08000214                TIM6_DAC_IRQHandler
                0x08000214                DMA1_Channel4_IRQHandler
                0x08000214                ADC1_IRQHandler
                0x08000214                DMA1_Channel7_IRQHandler
                0x08000214                DMA1_Channel6_IRQHandler
                0x08000214                DMA1_Channel1_IRQHandler
                0x08000214                CEC_IRQHandler
                0x08000214                TIM7_IRQHandler
                0x08000214                EXTI9_5_IRQHandler
                0x08000214                SVC_Handler
                0x08000214                DMA1_Channel5_IRQHandler
                0x08000214                TIM1_TRG_COM_TIM17_IRQHandler
                0x08000214                DMA1_Channel3_IRQHandler
                0x08000214                TIM2_IRQHandler
                0x08000214                EXTI1_IRQHandler
                0x08000214                DMA1_Channel2_IRQHandler
                0x08000214                TIM1_BRK_TIM15_IRQHandler
 .text.SystemInit
                0x0800021c       0xb8 ..\obj\system_stm32f10x.o
                0x0800021c                SystemInit
 .text.SetSysClock
                0x080002d4        0xc ..\obj\system_stm32f10x.o
 .text.SetSysClockTo24
                0x080002e0      0x15c ..\obj\system_stm32f10x.o
 .text.GPIO_Init
                0x0800043c      0x1b0 ..\obj\stm32f10x_gpio.o
                0x0800043c                GPIO_Init
 .text.GPIO_SetBits
                0x080005ec       0x1c ..\obj\stm32f10x_gpio.o
                0x080005ec                GPIO_SetBits
 .text.GPIO_ResetBits
                0x08000608       0x1c ..\obj\stm32f10x_gpio.o
                0x08000608                GPIO_ResetBits
 .text.main     0x08000624      0x118 ..\obj\main.o
                0x08000624                main
 .text.NVIC_SetPriority
                0x0800073c       0x5c ..\obj\system.o
 .text.SysTick_Config
                0x08000798       0x64 ..\obj\system.o
 .text.PeripheralInit
                0x080007fc       0x18 ..\obj\system.o
                0x080007fc                PeripheralInit
 .text.RccInit  0x08000814       0xa4 ..\obj\system.o
                0x08000814                RccInit
 .text.GPIOInit
                0x080008b8       0x34 ..\obj\system.o
                0x080008b8                GPIOInit
 .text.TimerInit
                0x080008ec        0xc ..\obj\system.o
                0x080008ec                TimerInit
 .text.NvicInit
                0x080008f8        0xc ..\obj\system.o
                0x080008f8                NvicInit
 .text.TimingDelay_Decrement
                0x08000904       0x30 ..\obj\Delay.o
                0x08000904                TimingDelay_Decrement
 .text.Delay_ms
                0x08000934       0x30 ..\obj\Delay.o
                0x08000934                Delay_ms
 .text.IncreaseMillis
                0x08000964       0x24 ..\obj\Delay.o
                0x08000964                IncreaseMillis
 .text.RCC_HSEConfig
                0x08000988       0x88 ..\obj\stm32f10x_rcc.o
                0x08000988                RCC_HSEConfig
 .text.RCC_WaitForHSEStartUp
                0x08000a10       0x64 ..\obj\stm32f10x_rcc.o
                0x08000a10                RCC_WaitForHSEStartUp
 .text.RCC_PLLConfig
                0x08000a74       0x48 ..\obj\stm32f10x_rcc.o
                0x08000a74                RCC_PLLConfig
 .text.RCC_PLLCmd
                0x08000abc       0x20 ..\obj\stm32f10x_rcc.o
                0x08000abc                RCC_PLLCmd
 .text.RCC_SYSCLKConfig
                0x08000adc       0x40 ..\obj\stm32f10x_rcc.o
                0x08000adc                RCC_SYSCLKConfig
 .text.RCC_GetSYSCLKSource
                0x08000b1c       0x20 ..\obj\stm32f10x_rcc.o
                0x08000b1c                RCC_GetSYSCLKSource
 .text.RCC_HCLKConfig
                0x08000b3c       0x40 ..\obj\stm32f10x_rcc.o
                0x08000b3c                RCC_HCLKConfig
 .text.RCC_PCLK1Config
                0x08000b7c       0x40 ..\obj\stm32f10x_rcc.o
                0x08000b7c                RCC_PCLK1Config
 .text.RCC_PCLK2Config
                0x08000bbc       0x44 ..\obj\stm32f10x_rcc.o
                0x08000bbc                RCC_PCLK2Config
 .text.RCC_GetClocksFreq
                0x08000c00      0x1cc ..\obj\stm32f10x_rcc.o
                0x08000c00                RCC_GetClocksFreq
 .text.RCC_APB2PeriphClockCmd
                0x08000dcc       0x54 ..\obj\stm32f10x_rcc.o
                0x08000dcc                RCC_APB2PeriphClockCmd
 .text.RCC_GetFlagStatus
                0x08000e20       0x90 ..\obj\stm32f10x_rcc.o
                0x08000e20                RCC_GetFlagStatus
 .text.USART_INIT
                0x08000eb0       0xec ..\obj\myusart.o
                0x08000eb0                USART_INIT
 .text.USART_SENDTXT
                0x08000f9c       0x98 ..\obj\myusart.o
                0x08000f9c                USART_SENDTXT
 .text.USART_RECEIVE
                0x08001034       0x38 ..\obj\myusart.o
                0x08001034                USART_RECEIVE
 .text.USART1_IRQHandler
                0x0800106c      0x17c ..\obj\myusart.o
                0x0800106c                USART1_IRQHandler
 .text.EXTI_ClearITPendingBit
                0x080011e8       0x20 ..\obj\stm32f10x_exti.o
                0x080011e8                EXTI_ClearITPendingBit
 .text.USART_Init
                0x08001208      0x1ac ..\obj\stm32f10x_usart.o
                0x08001208                USART_Init
 .text.USART_Cmd
                0x080013b4       0x40 ..\obj\stm32f10x_usart.o
                0x080013b4                USART_Cmd
 .text.USART_ITConfig
                0x080013f4       0xa4 ..\obj\stm32f10x_usart.o
                0x080013f4                USART_ITConfig
 .text.USART_SendData
                0x08001498       0x28 ..\obj\stm32f10x_usart.o
                0x08001498                USART_SendData
 .text.USART_ReceiveData
                0x080014c0       0x24 ..\obj\stm32f10x_usart.o
                0x080014c0                USART_ReceiveData
 .text.USART_GetITStatus
                0x080014e4       0xc4 ..\obj\stm32f10x_usart.o
                0x080014e4                USART_GetITStatus
 .text.FLASH_SetLatency
                0x080015a8       0x40 ..\obj\stm32f10x_flash.o
                0x080015a8                FLASH_SetLatency
 .text.FLASH_PrefetchBufferCmd
                0x080015e8       0x44 ..\obj\stm32f10x_flash.o
                0x080015e8                FLASH_PrefetchBufferCmd
 .text.NMI_Handler
                0x0800162c        0xc ..\obj\stm32f10x_it.o
                0x0800162c                NMI_Handler
 .text.HardFault_Handler
                0x08001638        0x8 ..\obj\stm32f10x_it.o
                0x08001638                HardFault_Handler
 .text.MemManage_Handler
                0x08001640        0x8 ..\obj\stm32f10x_it.o
                0x08001640                MemManage_Handler
 .text.BusFault_Handler
                0x08001648        0x8 ..\obj\stm32f10x_it.o
                0x08001648                BusFault_Handler
 .text.UsageFault_Handler
                0x08001650        0x8 ..\obj\stm32f10x_it.o
                0x08001650                UsageFault_Handler
 .text.SysTick_Handler
                0x08001658       0x10 ..\obj\stm32f10x_it.o
                0x08001658                SysTick_Handler
 .text.WWDG_IRQHandler
                0x08001668        0xc ..\obj\stm32f10x_it.o
                0x08001668                WWDG_IRQHandler
 .text.PVD_IRQHandler
                0x08001674        0xc ..\obj\stm32f10x_it.o
                0x08001674                PVD_IRQHandler
 .text.TAMPER_IRQHandler
                0x08001680        0xc ..\obj\stm32f10x_it.o
                0x08001680                TAMPER_IRQHandler
 .text.RTC_IRQHandler
                0x0800168c        0xc ..\obj\stm32f10x_it.o
                0x0800168c                RTC_IRQHandler
 .text.FLASH_IRQHandler
                0x08001698        0xc ..\obj\stm32f10x_it.o
                0x08001698                FLASH_IRQHandler
 .text.RCC_IRQHandler
                0x080016a4        0xc ..\obj\stm32f10x_it.o
                0x080016a4                RCC_IRQHandler
 .text.EXTI4_IRQHandler
                0x080016b0       0x10 ..\obj\stm32f10x_it.o
                0x080016b0                EXTI4_IRQHandler
 .text.TIM1_CC_IRQHandler
                0x080016c0        0xc ..\obj\stm32f10x_it.o
                0x080016c0                TIM1_CC_IRQHandler
 .text.TIM3_IRQHandler
                0x080016cc       0x2c ..\obj\stm32f10x_it.o
                0x080016cc                TIM3_IRQHandler
 .text.TIM4_IRQHandler
                0x080016f8       0x2c ..\obj\stm32f10x_it.o
                0x080016f8                TIM4_IRQHandler
 .text.I2C1_EV_IRQHandler
                0x08001724        0xc ..\obj\stm32f10x_it.o
                0x08001724                I2C1_EV_IRQHandler
 .text.I2C1_ER_IRQHandler
                0x08001730        0xc ..\obj\stm32f10x_it.o
                0x08001730                I2C1_ER_IRQHandler
 .text.I2C2_EV_IRQHandler
                0x0800173c        0xc ..\obj\stm32f10x_it.o
                0x0800173c                I2C2_EV_IRQHandler
 .text.I2C2_ER_IRQHandler
                0x08001748        0xc ..\obj\stm32f10x_it.o
                0x08001748                I2C2_ER_IRQHandler
 .text.SPI1_IRQHandler
                0x08001754        0xc ..\obj\stm32f10x_it.o
                0x08001754                SPI1_IRQHandler
 .text.SPI2_IRQHandler
                0x08001760        0xc ..\obj\stm32f10x_it.o
                0x08001760                SPI2_IRQHandler
 .text.USART2_IRQHandler
                0x0800176c        0xc ..\obj\stm32f10x_it.o
                0x0800176c                USART2_IRQHandler
 .text.USART3_IRQHandler
                0x08001778        0xc ..\obj\stm32f10x_it.o
                0x08001778                USART3_IRQHandler
 .text.EXTI15_10_IRQHandler
                0x08001784        0xc ..\obj\stm32f10x_it.o
                0x08001784                EXTI15_10_IRQHandler
 .text.RTCAlarm_IRQHandler
                0x08001790        0xc ..\obj\stm32f10x_it.o
                0x08001790                RTCAlarm_IRQHandler
 .text.NVIC_PriorityGroupConfig
                0x0800179c       0x28 ..\obj\misc.o
                0x0800179c                NVIC_PriorityGroupConfig
 .text.NVIC_Init
                0x080017c4       0xe8 ..\obj\misc.o
                0x080017c4                NVIC_Init
 .text.strlen   0x080018ac       0x60 c:/coocox/coide/bleedingedge/bin/../lib/gcc/arm-none-eabi/4.7.4/../../../../arm-none-eabi/lib/armv7-m\libg.a(lib_a-strlen.o)
                0x080018ac                strlen
 *(.init)
 *(.fini)
 *crtbegin.o(.ctors)
 *crtbegin?.o(.ctors)
 *(EXCLUDE_FILE(*crtend.o *crtend?.o) .ctors)
 *(SORT(.ctors.*))
 *(.ctors)
 *crtbegin.o(.dtors)
 *crtbegin?.o(.dtors)
 *(EXCLUDE_FILE(*crtend.o *crtend?.o) .dtors)
 *(SORT(.dtors.*))
 *(.dtors)
 *(.rodata*)
 .rodata        0x0800190c       0x14 ..\obj\main.o
 *(.eh_fram e*)

.glue_7         0x08001920        0x0
 .glue_7        0x00000000        0x0 linker stubs

.glue_7t        0x08001920        0x0
 .glue_7t       0x00000000        0x0 linker stubs

.vfp11_veneer   0x08001920        0x0
 .vfp11_veneer  0x00000000        0x0 linker stubs

.v4_bx          0x08001920        0x0
 .v4_bx         0x00000000        0x0 linker stubs

.iplt           0x08001920        0x0
 .iplt          0x00000000        0x0 ..\obj\stm32f10x_tim.o

.rel.dyn        0x08001920        0x0
 .rel.iplt      0x00000000        0x0 ..\obj\stm32f10x_tim.o

.ARM.extab
 *(.ARM.extab* .gnu.linkonce.armextab.*)
                0x08001920                __exidx_start = .

.ARM.exidx
 *(.ARM.exidx* .gnu.linkonce.armexidx.*)
                0x08001920                __exidx_end = .
                0x08001920                __etext = .
                0x08001920                _sidata = __etext

.data           0x20000000       0x18 load address 0x08001920
                0x20000000                __data_start__ = .
                0x20000000                _sdata = __data_start__
 *(vtable)
 *(.data*)
 .data          0x20000000       0x14 ..\obj\stm32f10x_rcc.o
 .data          0x20000014        0x1 ..\obj\myusart.o
                0x20000014                Flag_f_send
                0x20000018                . = ALIGN (0x4)
 *fill*         0x20000015        0x3 
                0x20000018                PROVIDE (__preinit_array_start, .)
 *(.preinit_array)
                0x20000018                PROVIDE (__preinit_array_end, .)
                0x20000018                . = ALIGN (0x4)
                0x20000018                PROVIDE (__init_array_start, .)
 *(SORT(.init_array.*))
 *(.init_array)
                0x20000018                PROVIDE (__init_array_end, .)
                0x20000018                . = ALIGN (0x4)
                0x20000018                PROVIDE (__fini_array_start, .)
 *(SORT(.fini_array.*))
 *(.fini_array)
                0x20000018                PROVIDE (__fini_array_end, .)
 *(.jcr*)
                0x20000018                . = ALIGN (0x4)
                0x20000018                __data_end__ = .
                0x20000018                _edata = __data_end__

.igot.plt       0x20000018        0x0 load address 0x08001938
 .igot.plt      0x00000000        0x0 ..\obj\stm32f10x_tim.o

.bss            0x20000018       0x4c load address 0x08001938
                0x20000018                . = ALIGN (0x4)
                0x20000018                __bss_start__ = .
                0x20000018                _sbss = __bss_start__
 *(.bss*)
 .bss           0x20000018        0x4 ..\obj\main.o
                0x20000018                i
 .bss           0x2000001c        0x4 ..\obj\Delay.o
                0x2000001c                MillisCounter
 .bss           0x20000020        0xc ..\obj\myusart.o
                0x20000020                Flag_read_rec_ext
                0x20000024                length_recbuff
                0x20000028                Flag_ready_send
                0x20000029                Flag_read_send_ext
 *(COMMON)
 COMMON         0x2000002c       0x14 ..\obj\system.o
                0x2000002c                RCC_Clocks
 COMMON         0x20000040        0x4 ..\obj\Delay.o
                0x20000040                TimingDelay
 COMMON         0x20000044       0x20 ..\obj\myusart.o
                0x20000044                length_tran
                0x20000048                usart_rec_buf_str
                0x20000050                transmit
                0x20000054                rec_buf
                0x20000060                wsk_buf_rec
                0x20000064                . = ALIGN (0x4)
                0x20000064                __bss_end__ = .
                0x20000064                _ebss = __bss_end__

.heap           0x20000064        0x0
                0x20000064                __end__ = .
                0x20000064                _end = __end__
                0x20000064                end = __end__
 *(.heap*)
                0x20000064                __HeapLimit = .

.co_stack       0x20000064      0x404 load address 0x08001984
                0x20000068                . = ALIGN (0x8)
 *fill*         0x20000064        0x4 
 *(.co_stack .co_stack.*)
 .co_stack      0x20000068      0x400 ..\obj\startup_stm32f10x_md_vl.o
                0x20000068                pulStack
                0x20002000                __StackTop = (ORIGIN (ram) + 0x2000)
                0x20001bfc                __StackLimit = (__StackTop - SIZEOF (.co_stack))
                0x20002000                PROVIDE (__stack, __StackTop)
                0x00000001                ASSERT ((__StackLimit >= __HeapLimit), region ram  overflowed with stack)
LOAD ..\obj\stm32f10x_tim.o
LOAD ..\obj\startup_stm32f10x_md_vl.o
LOAD ..\obj\system_stm32f10x.o
LOAD ..\obj\stm32f10x_gpio.o
LOAD ..\obj\main.o
LOAD ..\obj\system.o
LOAD ..\obj\Delay.o
LOAD ..\obj\stm32f10x_rcc.o
LOAD ..\obj\myusart.o
LOAD ..\obj\stm32f10x_exti.o
LOAD ..\obj\stm32f10x_usart.o
LOAD ..\obj\syscalls.o
LOAD ..\obj\stm32f10x_flash.o
LOAD ..\obj\stm32f10x_it.o
LOAD ..\obj\itoa.o
LOAD ..\obj\misc.o
START GROUP
LOAD c:/coocox/coide/bleedingedge/bin/../lib/gcc/arm-none-eabi/4.7.4/armv7-m\libgcc.a
LOAD c:/coocox/coide/bleedingedge/bin/../lib/gcc/arm-none-eabi/4.7.4/../../../../arm-none-eabi/lib/armv7-m\libg.a
LOAD c:/coocox/coide/bleedingedge/bin/../lib/gcc/arm-none-eabi/4.7.4/../../../../arm-none-eabi/lib/armv7-m\libc.a
END GROUP
OUTPUT(USART.elf elf32-littlearm)

.debug_info     0x00000000     0x6db3
 .debug_info    0x00000000     0x1e77 ..\obj\stm32f10x_tim.o
 .debug_info    0x00001e77       0xff ..\obj\startup_stm32f10x_md_vl.o
 .debug_info    0x00001f76      0x44b ..\obj\system_stm32f10x.o
 .debug_info    0x000023c1      0x739 ..\obj\stm32f10x_gpio.o
 .debug_info    0x00002afa      0x202 ..\obj\main.o
 .debug_info    0x00002cfc      0x836 ..\obj\system.o
 .debug_info    0x00003532      0x496 ..\obj\Delay.o
 .debug_info    0x000039c8      0x99b ..\obj\stm32f10x_rcc.o
 .debug_info    0x00004363      0x6a4 ..\obj\myusart.o
 .debug_info    0x00004a07      0x36d ..\obj\stm32f10x_exti.o
 .debug_info    0x00004d74      0xa8d ..\obj\stm32f10x_usart.o
 .debug_info    0x00005801      0x839 ..\obj\stm32f10x_flash.o
 .debug_info    0x0000603a      0x72e ..\obj\stm32f10x_it.o
 .debug_info    0x00006768      0x592 ..\obj\misc.o
 .debug_info    0x00006cfa       0xb9 c:/coocox/coide/bleedingedge/bin/../lib/gcc/arm-none-eabi/4.7.4/../../../../arm-none-eabi/lib/armv7-m\libg.a(lib_a-strlen.o)

.debug_abbrev   0x00000000     0x13f9
 .debug_abbrev  0x00000000      0x1b2 ..\obj\stm32f10x_tim.o
 .debug_abbrev  0x000001b2       0xa9 ..\obj\startup_stm32f10x_md_vl.o
 .debug_abbrev  0x0000025b      0x14e ..\obj\system_stm32f10x.o
 .debug_abbrev  0x000003a9      0x1ca ..\obj\stm32f10x_gpio.o
 .debug_abbrev  0x00000573      0x11a ..\obj\main.o
 .debug_abbrev  0x0000068d      0x1ce ..\obj\system.o
 .debug_abbrev  0x0000085b      0x184 ..\obj\Delay.o
 .debug_abbrev  0x000009df      0x1bc ..\obj\stm32f10x_rcc.o
 .debug_abbrev  0x00000b9b      0x17b ..\obj\myusart.o
 .debug_abbrev  0x00000d16      0x153 ..\obj\stm32f10x_exti.o
 .debug_abbrev  0x00000e69      0x164 ..\obj\stm32f10x_usart.o
 .debug_abbrev  0x00000fcd      0x18d ..\obj\stm32f10x_flash.o
 .debug_abbrev  0x0000115a      0x106 ..\obj\stm32f10x_it.o
 .debug_abbrev  0x00001260      0x129 ..\obj\misc.o
 .debug_abbrev  0x00001389       0x70 c:/coocox/coide/bleedingedge/bin/../lib/gcc/arm-none-eabi/4.7.4/../../../../arm-none-eabi/lib/armv7-m\libg.a(lib_a-strlen.o)

.debug_loc      0x00000000     0x3a81
 .debug_loc     0x00000000     0x13e8 ..\obj\stm32f10x_tim.o
 .debug_loc     0x000013e8       0x64 ..\obj\startup_stm32f10x_md_vl.o
 .debug_loc     0x0000144c       0xc8 ..\obj\system_stm32f10x.o
 .debug_loc     0x00001514      0x3e4 ..\obj\stm32f10x_gpio.o
 .debug_loc     0x000018f8       0x38 ..\obj\main.o
 .debug_loc     0x00001930      0x164 ..\obj\system.o
 .debug_loc     0x00001a94      0x12c ..\obj\Delay.o
 .debug_loc     0x00001bc0      0x714 ..\obj\stm32f10x_rcc.o
 .debug_loc     0x000022d4       0xd4 ..\obj\myusart.o
 .debug_loc     0x000023a8      0x1b4 ..\obj\stm32f10x_exti.o
 .debug_loc     0x0000255c      0x658 ..\obj\stm32f10x_usart.o
 .debug_loc     0x00002bb4      0x5d8 ..\obj\stm32f10x_flash.o
 .debug_loc     0x0000318c      0x7bc ..\obj\stm32f10x_it.o
 .debug_loc     0x00003948      0x118 ..\obj\misc.o
 .debug_loc     0x00003a60       0x21 c:/coocox/coide/bleedingedge/bin/../lib/gcc/arm-none-eabi/4.7.4/../../../../arm-none-eabi/lib/armv7-m\libg.a(lib_a-strlen.o)

.debug_aranges  0x00000000      0xa38
 .debug_aranges
                0x00000000      0x2f0 ..\obj\stm32f10x_tim.o
 .debug_aranges
                0x000002f0       0x28 ..\obj\startup_stm32f10x_md_vl.o
 .debug_aranges
                0x00000318       0x38 ..\obj\system_stm32f10x.o
 .debug_aranges
                0x00000350       0xa8 ..\obj\stm32f10x_gpio.o
 .debug_aranges
                0x000003f8       0x20 ..\obj\main.o
 .debug_aranges
                0x00000418       0x50 ..\obj\system.o
 .debug_aranges
                0x00000468       0x48 ..\obj\Delay.o
 .debug_aranges
                0x000004b0      0x120 ..\obj\stm32f10x_rcc.o
 .debug_aranges
                0x000005d0       0x38 ..\obj\myusart.o
 .debug_aranges
                0x00000608       0x58 ..\obj\stm32f10x_exti.o
 .debug_aranges
                0x00000660      0x100 ..\obj\stm32f10x_usart.o
 .debug_aranges
                0x00000760       0xf8 ..\obj\stm32f10x_flash.o
 .debug_aranges
                0x00000858      0x180 ..\obj\stm32f10x_it.o
 .debug_aranges
                0x000009d8       0x40 ..\obj\misc.o
 .debug_aranges
                0x00000a18       0x20 c:/coocox/coide/bleedingedge/bin/../lib/gcc/arm-none-eabi/4.7.4/../../../../arm-none-eabi/lib/armv7-m\libg.a(lib_a-strlen.o)

.debug_ranges   0x00000000      0x948
 .debug_ranges  0x00000000      0x2e0 ..\obj\stm32f10x_tim.o
 .debug_ranges  0x000002e0       0x18 ..\obj\startup_stm32f10x_md_vl.o
 .debug_ranges  0x000002f8       0x28 ..\obj\system_stm32f10x.o
 .debug_ranges  0x00000320       0x98 ..\obj\stm32f10x_gpio.o
 .debug_ranges  0x000003b8       0x10 ..\obj\main.o
 .debug_ranges  0x000003c8       0x40 ..\obj\system.o
 .debug_ranges  0x00000408       0x38 ..\obj\Delay.o
 .debug_ranges  0x00000440      0x110 ..\obj\stm32f10x_rcc.o
 .debug_ranges  0x00000550       0x28 ..\obj\myusart.o
 .debug_ranges  0x00000578       0x48 ..\obj\stm32f10x_exti.o
 .debug_ranges  0x000005c0       0xf0 ..\obj\stm32f10x_usart.o
 .debug_ranges  0x000006b0       0xe8 ..\obj\stm32f10x_flash.o
 .debug_ranges  0x00000798      0x170 ..\obj\stm32f10x_it.o
 .debug_ranges  0x00000908       0x30 ..\obj\misc.o
 .debug_ranges  0x00000938       0x10 c:/coocox/coide/bleedingedge/bin/../lib/gcc/arm-none-eabi/4.7.4/../../../../arm-none-eabi/lib/armv7-m\libg.a(lib_a-strlen.o)

.debug_line     0x00000000     0x2e62
 .debug_line    0x00000000      0xa1e ..\obj\stm32f10x_tim.o
 .debug_line    0x00000a1e       0x9f ..\obj\startup_stm32f10x_md_vl.o
 .debug_line    0x00000abd      0x1ad ..\obj\system_stm32f10x.o
 .debug_line    0x00000c6a      0x338 ..\obj\stm32f10x_gpio.o
 .debug_line    0x00000fa2      0x1d7 ..\obj\main.o
 .debug_line    0x00001179      0x22d ..\obj\system.o
 .debug_line    0x000013a6      0x201 ..\obj\Delay.o
 .debug_line    0x000015a7      0x456 ..\obj\stm32f10x_rcc.o
 .debug_line    0x000019fd      0x26c ..\obj\myusart.o
 .debug_line    0x00001c69      0x22d ..\obj\stm32f10x_exti.o
 .debug_line    0x00001e96      0x424 ..\obj\stm32f10x_usart.o
 .debug_line    0x000022ba      0x462 ..\obj\stm32f10x_flash.o
 .debug_line    0x0000271c      0x440 ..\obj\stm32f10x_it.o
 .debug_line    0x00002b5c      0x1cd ..\obj\misc.o
 .debug_line    0x00002d29      0x139 c:/coocox/coide/bleedingedge/bin/../lib/gcc/arm-none-eabi/4.7.4/../../../../arm-none-eabi/lib/armv7-m\libg.a(lib_a-strlen.o)

.debug_str      0x00000000     0x2b60
 .debug_str     0x00000000      0xcb2 ..\obj\stm32f10x_tim.o
                                0xd5b (size before relaxing)
 .debug_str     0x00000cb2       0xad ..\obj\startup_stm32f10x_md_vl.o
                                 0xea (size before relaxing)
 .debug_str     0x00000d5f      0x15c ..\obj\system_stm32f10x.o
                                0x258 (size before relaxing)
 .debug_str     0x00000ebb      0x378 ..\obj\stm32f10x_gpio.o
                                0x497 (size before relaxing)
 .debug_str     0x00001233       0x72 ..\obj\main.o
                                0x178 (size before relaxing)
 .debug_str     0x000012a5      0x40e ..\obj\system.o
                                0x6d1 (size before relaxing)
 .debug_str     0x000016b3       0xab ..\obj\Delay.o
                                0x31f (size before relaxing)
 .debug_str     0x0000175e      0x38f ..\obj\stm32f10x_rcc.o
                                0x5eb (size before relaxing)
 .debug_str     0x00001aed      0x211 ..\obj\myusart.o
                                0x76a (size before relaxing)
 .debug_str     0x00001cfe      0x1cc ..\obj\stm32f10x_exti.o
                                0x2dc (size before relaxing)
 .debug_str     0x00001eca      0x3a3 ..\obj\stm32f10x_usart.o
                                0x60e (size before relaxing)
 .debug_str     0x0000226d      0x425 ..\obj\stm32f10x_flash.o
                                0x566 (size before relaxing)
 .debug_str     0x00002692      0x370 ..\obj\stm32f10x_it.o
                                0x563 (size before relaxing)
 .debug_str     0x00002a02      0x105 ..\obj\misc.o
                                0x347 (size before relaxing)
 .debug_str     0x00002b07       0x59 c:/coocox/coide/bleedingedge/bin/../lib/gcc/arm-none-eabi/4.7.4/../../../../arm-none-eabi/lib/armv7-m\libg.a(lib_a-strlen.o)
                                0x114 (size before relaxing)

.comment        0x00000000       0x6a
 .comment       0x00000000       0x6a ..\obj\stm32f10x_tim.o
                                 0x6b (size before relaxing)
 .comment       0x00000000       0x6b ..\obj\startup_stm32f10x_md_vl.o
 .comment       0x00000000       0x6b ..\obj\system_stm32f10x.o
 .comment       0x00000000       0x6b ..\obj\stm32f10x_gpio.o
 .comment       0x00000000       0x6b ..\obj\main.o
 .comment       0x00000000       0x6b ..\obj\system.o
 .comment       0x00000000       0x6b ..\obj\Delay.o
 .comment       0x00000000       0x6b ..\obj\stm32f10x_rcc.o
 .comment       0x00000000       0x6b ..\obj\myusart.o
 .comment       0x00000000       0x6b ..\obj\stm32f10x_exti.o
 .comment       0x00000000       0x6b ..\obj\stm32f10x_usart.o
 .comment       0x00000000       0x6b ..\obj\stm32f10x_flash.o
 .comment       0x00000000       0x6b ..\obj\stm32f10x_it.o
 .comment       0x00000000       0x6b ..\obj\misc.o
 .comment       0x00000000       0x6b c:/coocox/coide/bleedingedge/bin/../lib/gcc/arm-none-eabi/4.7.4/../../../../arm-none-eabi/lib/armv7-m\libg.a(lib_a-strlen.o)

.ARM.attributes
                0x00000000       0x33
 .ARM.attributes
                0x00000000       0x33 ..\obj\stm32f10x_tim.o
 .ARM.attributes
                0x00000033       0x33 ..\obj\startup_stm32f10x_md_vl.o
 .ARM.attributes
                0x00000066       0x33 ..\obj\system_stm32f10x.o
 .ARM.attributes
                0x00000099       0x33 ..\obj\stm32f10x_gpio.o
 .ARM.attributes
                0x000000cc       0x33 ..\obj\main.o
 .ARM.attributes
                0x000000ff       0x33 ..\obj\system.o
 .ARM.attributes
                0x00000132       0x33 ..\obj\Delay.o
 .ARM.attributes
                0x00000165       0x33 ..\obj\stm32f10x_rcc.o
 .ARM.attributes
                0x00000198       0x33 ..\obj\myusart.o
 .ARM.attributes
                0x000001cb       0x33 ..\obj\stm32f10x_exti.o
 .ARM.attributes
                0x000001fe       0x33 ..\obj\stm32f10x_usart.o
 .ARM.attributes
                0x00000231       0x33 ..\obj\stm32f10x_flash.o
 .ARM.attributes
                0x00000264       0x33 ..\obj\stm32f10x_it.o
 .ARM.attributes
                0x00000297       0x33 ..\obj\misc.o
 .ARM.attributes
                0x000002ca       0x2d c:/coocox/coide/bleedingedge/bin/../lib/gcc/arm-none-eabi/4.7.4/../../../../arm-none-eabi/lib/armv7-m\libg.a(lib_a-strlen.o)

.debug_frame    0x00000000     0x1f60
 .debug_frame   0x00000000      0xa20 ..\obj\stm32f10x_tim.o
 .debug_frame   0x00000a20       0x48 ..\obj\startup_stm32f10x_md_vl.o
 .debug_frame   0x00000a68       0x80 ..\obj\system_stm32f10x.o
 .debug_frame   0x00000ae8      0x210 ..\obj\stm32f10x_gpio.o
 .debug_frame   0x00000cf8       0x30 ..\obj\main.o
 .debug_frame   0x00000d28       0xd8 ..\obj\system.o
 .debug_frame   0x00000e00       0xb4 ..\obj\Delay.o
 .debug_frame   0x00000eb4      0x3a4 ..\obj\stm32f10x_rcc.o
 .debug_frame   0x00001258       0x8c ..\obj\myusart.o
 .debug_frame   0x000012e4       0xec ..\obj\stm32f10x_exti.o
 .debug_frame   0x000013d0      0x344 ..\obj\stm32f10x_usart.o
 .debug_frame   0x00001714      0x338 ..\obj\stm32f10x_flash.o
 .debug_frame   0x00001a4c      0x458 ..\obj\stm32f10x_it.o
 .debug_frame   0x00001ea4       0x9c ..\obj\misc.o
 .debug_frame   0x00001f40       0x20 c:/coocox/coide/bleedingedge/bin/../lib/gcc/arm-none-eabi/4.7.4/../../../../arm-none-eabi/lib/armv7-m\libg.a(lib_a-strlen.o)
